target datalayout = "e-m:e-p270:32:32-p271:32:32-p272:64:64-i64:64-i128:128-f80:128-n8:16:32:64-S128"
target triple = "x86_64-pc-linux-gnu"

%struct.lean_thunk_object = type { %struct.lean_object, ptr, ptr }
%struct.lean_object = type { i32, i32 }
%struct.lean_ctor_object = type { %struct.lean_object, [0 x ptr] }

@l_Std_Time_ZonedDateTime_millisecond___closed__1 = internal global ptr null, align 8

; Function Attrs: inlinehint nounwind uwtable
define internal i64 @lean_unbox(ptr noundef %0) #0 {
  %2 = alloca ptr, align 8
  store ptr %0, ptr %2, align 8, !tbaa !4
  %3 = load ptr, ptr %2, align 8, !tbaa !4
  %4 = ptrtoint ptr %3 to i64
  %5 = lshr i64 %4, 1
  ret i64 %5
}

; Function Attrs: inlinehint nounwind uwtable
define internal zeroext i1 @lean_is_st(ptr noundef %0) #0 {
  %2 = alloca ptr, align 8
  store ptr %0, ptr %2, align 8, !tbaa !4
  %3 = load ptr, ptr %2, align 8, !tbaa !4
  %4 = getelementptr inbounds nuw %struct.lean_object, ptr %3, i32 0, i32 0
  %5 = load i32, ptr %4, align 4, !tbaa !19
  %6 = icmp sgt i32 %5, 0
  ret i1 %6
}

; Function Attrs: inlinehint nounwind uwtable
define internal ptr @lean_to_thunk(ptr noundef %0) #0 {
  %2 = alloca ptr, align 8
  store ptr %0, ptr %2, align 8, !tbaa !4
  %3 = load ptr, ptr %2, align 8, !tbaa !4
  ret ptr %3
}

; Function Attrs: inlinehint nounwind uwtable
define internal ptr @lean_to_ctor(ptr noundef %0) #0 {
  %2 = alloca ptr, align 8
  store ptr %0, ptr %2, align 8, !tbaa !4
  %3 = load ptr, ptr %2, align 8, !tbaa !4
  ret ptr %3
}

; Function Attrs: inlinehint nounwind uwtable
define internal ptr @lean_int64_to_int(i64 noundef %0) #0 {
  %2 = alloca ptr, align 8
  %3 = alloca i64, align 8
  store i64 %0, ptr %3, align 8, !tbaa !8
  %4 = load i64, ptr %3, align 8, !tbaa !8
  %5 = icmp sle i64 -2147483648, %4
  br i1 %5, label %6, label %9

6:                                                ; preds = %1
  %7 = load i64, ptr %3, align 8, !tbaa !8
  %8 = icmp sle i64 %7, 2147483647
  br label %9

9:                                                ; preds = %6, %1
  %10 = phi i1 [ false, %1 ], [ %8, %6 ]
  %11 = zext i1 %10 to i32
  %12 = sext i32 %11 to i64
  %13 = call i64 @llvm.expect.i64(i64 %12, i64 1)
  %14 = icmp ne i64 %13, 0
  br i1 %14, label %15, label %20

15:                                               ; preds = %9
  %16 = load i64, ptr %3, align 8, !tbaa !8
  %17 = trunc i64 %16 to i32
  %18 = zext i32 %17 to i64
  %19 = call ptr @lean_box(i64 noundef %18)
  store ptr %19, ptr %2, align 8
  br label %23

20:                                               ; preds = %9
  %21 = load i64, ptr %3, align 8, !tbaa !8
  %22 = call ptr @lean_big_int64_to_int(i64 noundef %21)
  store ptr %22, ptr %2, align 8
  br label %23

23:                                               ; preds = %20, %15
  %24 = load ptr, ptr %2, align 8
  ret ptr %24
}

; Function Attrs: inlinehint nounwind uwtable
define internal ptr @lean_box(i64 noundef %0) #0 {
  %2 = alloca i64, align 8
  store i64 %0, ptr %2, align 8, !tbaa !8
  %3 = load i64, ptr %2, align 8, !tbaa !8
  %4 = shl i64 %3, 1
  %5 = or i64 %4, 1
  %6 = inttoptr i64 %5 to ptr
  ret ptr %6
}

; Function Attrs: inlinehint nounwind uwtable
define internal i32 @lean_scalar_to_int(ptr noundef %0) #0 {
  %2 = alloca ptr, align 8
  store ptr %0, ptr %2, align 8, !tbaa !4
  %3 = load ptr, ptr %2, align 8, !tbaa !4
  %4 = call i64 @lean_unbox(ptr noundef %3)
  %5 = trunc i64 %4 to i32
  ret i32 %5
}

; Function Attrs: alwaysinline nounwind uwtable
define internal void @lean_dec_ref(ptr noundef %0) #1 {
  %2 = alloca ptr, align 8
  store ptr %0, ptr %2, align 8, !tbaa !4
  %3 = load ptr, ptr %2, align 8, !tbaa !4
  %4 = getelementptr inbounds nuw %struct.lean_object, ptr %3, i32 0, i32 0
  %5 = load i32, ptr %4, align 4, !tbaa !19
  %6 = icmp sgt i32 %5, 1
  %7 = zext i1 %6 to i32
  %8 = sext i32 %7 to i64
  %9 = call i64 @llvm.expect.i64(i64 %8, i64 1)
  %10 = icmp ne i64 %9, 0
  br i1 %10, label %11, label %16

11:                                               ; preds = %1
  %12 = load ptr, ptr %2, align 8, !tbaa !4
  %13 = getelementptr inbounds nuw %struct.lean_object, ptr %12, i32 0, i32 0
  %14 = load i32, ptr %13, align 4, !tbaa !19
  %15 = add i32 %14, -1
  store i32 %15, ptr %13, align 4, !tbaa !19
  br label %24

16:                                               ; preds = %1
  %17 = load ptr, ptr %2, align 8, !tbaa !4
  %18 = getelementptr inbounds nuw %struct.lean_object, ptr %17, i32 0, i32 0
  %19 = load i32, ptr %18, align 4, !tbaa !19
  %20 = icmp ne i32 %19, 0
  br i1 %20, label %21, label %23

21:                                               ; preds = %16
  %22 = load ptr, ptr %2, align 8, !tbaa !4
  call void @lean_dec_ref_cold(ptr noundef %22)
  br label %23

23:                                               ; preds = %21, %16
  br label %24

24:                                               ; preds = %23, %11
  ret void
}

; Function Attrs: inlinehint nounwind uwtable
define internal void @lean_inc_ref(ptr noundef %0) #0 {
  %2 = alloca ptr, align 8
  store ptr %0, ptr %2, align 8, !tbaa !4
  %3 = load ptr, ptr %2, align 8, !tbaa !4
  %4 = call zeroext i1 @lean_is_st(ptr noundef %3)
  %5 = zext i1 %4 to i64
  %6 = call i64 @llvm.expect.i64(i64 %5, i64 1)
  %7 = icmp ne i64 %6, 0
  br i1 %7, label %8, label %13

8:                                                ; preds = %1
  %9 = load ptr, ptr %2, align 8, !tbaa !4
  %10 = getelementptr inbounds nuw %struct.lean_object, ptr %9, i32 0, i32 0
  %11 = load i32, ptr %10, align 4, !tbaa !19
  %12 = add i32 %11, 1
  store i32 %12, ptr %10, align 4, !tbaa !19
  br label %21

13:                                               ; preds = %1
  %14 = load ptr, ptr %2, align 8, !tbaa !4
  %15 = getelementptr inbounds nuw %struct.lean_object, ptr %14, i32 0, i32 0
  %16 = load i32, ptr %15, align 4, !tbaa !19
  %17 = icmp ne i32 %16, 0
  br i1 %17, label %18, label %20

18:                                               ; preds = %13
  %19 = load ptr, ptr %2, align 8, !tbaa !4
  call void @lean_inc_ref_cold(ptr noundef %19)
  br label %20

20:                                               ; preds = %18, %13
  br label %21

21:                                               ; preds = %20, %8
  ret void
}

; Function Attrs: alwaysinline nounwind uwtable
define internal zeroext i1 @lean_is_scalar(ptr noundef %0) #1 {
  %2 = alloca ptr, align 8
  store ptr %0, ptr %2, align 8, !tbaa !4
  %3 = load ptr, ptr %2, align 8, !tbaa !4
  %4 = ptrtoint ptr %3 to i64
  %5 = and i64 %4, 1
  %6 = icmp eq i64 %5, 1
  ret i1 %6
}

; Function Attrs: inlinehint nounwind uwtable
define internal ptr @lean_thunk_get(ptr noundef %0) #0 {
  %2 = alloca ptr, align 8
  %3 = alloca ptr, align 8
  %4 = alloca ptr, align 8
  %5 = alloca i32, align 4
  store ptr %0, ptr %3, align 8, !tbaa !4
  call void @llvm.lifetime.start.p0(i64 8, ptr %4) #7
  %6 = load ptr, ptr %3, align 8, !tbaa !4
  %7 = call ptr @lean_to_thunk(ptr noundef %6)
  %8 = getelementptr inbounds nuw %struct.lean_thunk_object, ptr %7, i32 0, i32 1
  %9 = load atomic ptr, ptr %8 seq_cst, align 8, !tbaa !10
  store ptr %9, ptr %4, align 8, !tbaa !4
  %10 = load ptr, ptr %4, align 8, !tbaa !4
  %11 = icmp ne ptr %10, null
  br i1 %11, label %12, label %14

12:                                               ; preds = %1
  %13 = load ptr, ptr %4, align 8, !tbaa !4
  store ptr %13, ptr %2, align 8
  store i32 1, ptr %5, align 4
  br label %17

14:                                               ; preds = %1
  %15 = load ptr, ptr %3, align 8, !tbaa !4
  %16 = call ptr @lean_thunk_get_core(ptr noundef %15)
  store ptr %16, ptr %2, align 8
  store i32 1, ptr %5, align 4
  br label %17

17:                                               ; preds = %14, %12
  call void @llvm.lifetime.end.p0(i64 8, ptr %4) #7
  %18 = load ptr, ptr %2, align 8
  ret ptr %18
}

; Function Attrs: inlinehint nounwind uwtable
define internal ptr @lean_ctor_obj_cptr(ptr noundef %0) #0 {
  %2 = alloca ptr, align 8
  store ptr %0, ptr %2, align 8, !tbaa !4
  %3 = load ptr, ptr %2, align 8, !tbaa !4
  %4 = call ptr @lean_to_ctor(ptr noundef %3)
  %5 = getelementptr inbounds nuw %struct.lean_ctor_object, ptr %4, i32 0, i32 1
  %6 = getelementptr inbounds [0 x ptr], ptr %5, i64 0, i64 0
  ret ptr %6
}

; Function Attrs: inlinehint nounwind uwtable
define internal ptr @lean_int_ediv(ptr noundef %0, ptr noundef %1) #0 {
  %3 = alloca ptr, align 8
  %4 = alloca ptr, align 8
  %5 = alloca ptr, align 8
  %6 = alloca i64, align 8
  %7 = alloca i64, align 8
  %8 = alloca i32, align 4
  %9 = alloca i64, align 8
  %10 = alloca i64, align 8
  store ptr %0, ptr %4, align 8, !tbaa !4
  store ptr %1, ptr %5, align 8, !tbaa !4
  %11 = load ptr, ptr %4, align 8, !tbaa !4
  %12 = call zeroext i1 @lean_is_scalar(ptr noundef %11)
  br i1 %12, label %13, label %16

13:                                               ; preds = %2
  %14 = load ptr, ptr %5, align 8, !tbaa !4
  %15 = call zeroext i1 @lean_is_scalar(ptr noundef %14)
  br label %16

16:                                               ; preds = %13, %2
  %17 = phi i1 [ false, %2 ], [ %15, %13 ]
  %18 = zext i1 %17 to i32
  %19 = sext i32 %18 to i64
  %20 = call i64 @llvm.expect.i64(i64 %19, i64 1)
  %21 = icmp ne i64 %20, 0
  br i1 %21, label %22, label %57

22:                                               ; preds = %16
  call void @llvm.lifetime.start.p0(i64 8, ptr %6) #7
  %23 = load ptr, ptr %4, align 8, !tbaa !4
  %24 = call i32 @lean_scalar_to_int(ptr noundef %23)
  %25 = sext i32 %24 to i64
  store i64 %25, ptr %6, align 8, !tbaa !8
  call void @llvm.lifetime.start.p0(i64 8, ptr %7) #7
  %26 = load ptr, ptr %5, align 8, !tbaa !4
  %27 = call i32 @lean_scalar_to_int(ptr noundef %26)
  %28 = sext i32 %27 to i64
  store i64 %28, ptr %7, align 8, !tbaa !8
  %29 = load i64, ptr %7, align 8, !tbaa !8
  %30 = icmp eq i64 %29, 0
  br i1 %30, label %31, label %33

31:                                               ; preds = %22
  %32 = call ptr @lean_box(i64 noundef 0)
  store ptr %32, ptr %3, align 8
  store i32 1, ptr %8, align 4
  br label %56

33:                                               ; preds = %22
  call void @llvm.lifetime.start.p0(i64 8, ptr %9) #7
  %34 = load i64, ptr %6, align 8, !tbaa !8
  %35 = load i64, ptr %7, align 8, !tbaa !8
  %36 = sdiv i64 %34, %35
  store i64 %36, ptr %9, align 8, !tbaa !8
  call void @llvm.lifetime.start.p0(i64 8, ptr %10) #7
  %37 = load i64, ptr %6, align 8, !tbaa !8
  %38 = load i64, ptr %7, align 8, !tbaa !8
  %39 = srem i64 %37, %38
  store i64 %39, ptr %10, align 8, !tbaa !8
  %40 = load i64, ptr %10, align 8, !tbaa !8
  %41 = icmp slt i64 %40, 0
  br i1 %41, label %42, label %53

42:                                               ; preds = %33
  %43 = load i64, ptr %7, align 8, !tbaa !8
  %44 = icmp sgt i64 %43, 0
  br i1 %44, label %45, label %48

45:                                               ; preds = %42
  %46 = load i64, ptr %9, align 8, !tbaa !8
  %47 = sub i64 %46, 1
  br label %51

48:                                               ; preds = %42
  %49 = load i64, ptr %9, align 8, !tbaa !8
  %50 = add i64 %49, 1
  br label %51

51:                                               ; preds = %48, %45
  %52 = phi i64 [ %47, %45 ], [ %50, %48 ]
  store i64 %52, ptr %9, align 8, !tbaa !8
  br label %53

53:                                               ; preds = %51, %33
  %54 = load i64, ptr %9, align 8, !tbaa !8
  %55 = call ptr @lean_int64_to_int(i64 noundef %54)
  store ptr %55, ptr %3, align 8
  store i32 1, ptr %8, align 4
  call void @llvm.lifetime.end.p0(i64 8, ptr %10) #7
  call void @llvm.lifetime.end.p0(i64 8, ptr %9) #7
  br label %56

56:                                               ; preds = %53, %31
  call void @llvm.lifetime.end.p0(i64 8, ptr %7) #7
  call void @llvm.lifetime.end.p0(i64 8, ptr %6) #7
  br label %61

57:                                               ; preds = %16
  %58 = load ptr, ptr %4, align 8, !tbaa !4
  %59 = load ptr, ptr %5, align 8, !tbaa !4
  %60 = call ptr @lean_int_big_ediv(ptr noundef %58, ptr noundef %59)
  store ptr %60, ptr %3, align 8
  br label %61

61:                                               ; preds = %57, %56
  %62 = load ptr, ptr %3, align 8
  ret ptr %62
}

; Function Attrs: alwaysinline nounwind uwtable
define internal void @lean_dec(ptr noundef %0) #1 {
  %2 = alloca ptr, align 8
  store ptr %0, ptr %2, align 8, !tbaa !4
  %3 = load ptr, ptr %2, align 8, !tbaa !4
  %4 = call zeroext i1 @lean_is_scalar(ptr noundef %3)
  br i1 %4, label %7, label %5

5:                                                ; preds = %1
  %6 = load ptr, ptr %2, align 8, !tbaa !4
  call void @lean_dec_ref(ptr noundef %6)
  br label %7

7:                                                ; preds = %5, %1
  ret void
}

; Function Attrs: alwaysinline nounwind uwtable
define internal void @lean_inc(ptr noundef %0) #1 {
  %2 = alloca ptr, align 8
  store ptr %0, ptr %2, align 8, !tbaa !4
  %3 = load ptr, ptr %2, align 8, !tbaa !4
  %4 = call zeroext i1 @lean_is_scalar(ptr noundef %3)
  br i1 %4, label %7, label %5

5:                                                ; preds = %1
  %6 = load ptr, ptr %2, align 8, !tbaa !4
  call void @lean_inc_ref(ptr noundef %6)
  br label %7

7:                                                ; preds = %5, %1
  ret void
}

; Function Attrs: inlinehint nounwind uwtable
define internal ptr @lean_thunk_get_own(ptr noundef %0) #0 {
  %2 = alloca ptr, align 8
  %3 = alloca ptr, align 8
  store ptr %0, ptr %2, align 8, !tbaa !4
  call void @llvm.lifetime.start.p0(i64 8, ptr %3) #7
  %4 = load ptr, ptr %2, align 8, !tbaa !4
  %5 = call ptr @lean_thunk_get(ptr noundef %4)
  store ptr %5, ptr %3, align 8, !tbaa !4
  %6 = load ptr, ptr %3, align 8, !tbaa !4
  call void @lean_inc(ptr noundef %6)
  %7 = load ptr, ptr %3, align 8, !tbaa !4
  call void @llvm.lifetime.end.p0(i64 8, ptr %3) #7
  ret ptr %7
}

; Function Attrs: inlinehint nounwind uwtable
define internal ptr @lean_ctor_get(ptr noundef %0, i32 noundef %1) #0 {
  %3 = alloca ptr, align 8
  %4 = alloca i32, align 4
  store ptr %0, ptr %3, align 8, !tbaa !4
  store i32 %1, ptr %4, align 4, !tbaa !15
  %5 = load ptr, ptr %3, align 8, !tbaa !4
  %6 = call ptr @lean_ctor_obj_cptr(ptr noundef %5)
  %7 = load i32, ptr %4, align 4, !tbaa !15
  %8 = zext i32 %7 to i64
  %9 = getelementptr inbounds nuw ptr, ptr %6, i64 %8
  %10 = load ptr, ptr %9, align 8, !tbaa !4
  ret ptr %10
}

; Function Attrs: nounwind uwtable
define ptr @l_Std_Time_ZonedDateTime_millisecond(ptr noundef %0) #2 {
  %2 = alloca ptr, align 8
  %3 = alloca ptr, align 8
  %4 = alloca ptr, align 8
  %5 = alloca ptr, align 8
  %6 = alloca ptr, align 8
  %7 = alloca ptr, align 8
  %8 = alloca ptr, align 8
  store ptr %0, ptr %2, align 8, !tbaa !4
  br label %9

9:                                                ; preds = %1
  call void @llvm.lifetime.start.p0(i64 8, ptr %3) #7
  call void @llvm.lifetime.start.p0(i64 8, ptr %4) #7
  call void @llvm.lifetime.start.p0(i64 8, ptr %5) #7
  call void @llvm.lifetime.start.p0(i64 8, ptr %6) #7
  call void @llvm.lifetime.start.p0(i64 8, ptr %7) #7
  call void @llvm.lifetime.start.p0(i64 8, ptr %8) #7
  %10 = load ptr, ptr %2, align 8, !tbaa !4
  %11 = call ptr @lean_ctor_get(ptr noundef %10, i32 noundef 0)
  store ptr %11, ptr %3, align 8, !tbaa !4
  %12 = load ptr, ptr %3, align 8, !tbaa !4
  %13 = call ptr @lean_thunk_get_own(ptr noundef %12)
  store ptr %13, ptr %4, align 8, !tbaa !4
  %14 = load ptr, ptr %4, align 8, !tbaa !4
  %15 = call ptr @lean_ctor_get(ptr noundef %14, i32 noundef 1)
  store ptr %15, ptr %5, align 8, !tbaa !4
  %16 = load ptr, ptr %5, align 8, !tbaa !4
  call void @lean_inc(ptr noundef %16)
  %17 = load ptr, ptr %4, align 8, !tbaa !4
  call void @lean_dec(ptr noundef %17)
  %18 = load ptr, ptr %5, align 8, !tbaa !4
  %19 = call ptr @lean_ctor_get(ptr noundef %18, i32 noundef 3)
  store ptr %19, ptr %6, align 8, !tbaa !4
  %20 = load ptr, ptr %6, align 8, !tbaa !4
  call void @lean_inc(ptr noundef %20)
  %21 = load ptr, ptr %5, align 8, !tbaa !4
  call void @lean_dec(ptr noundef %21)
  %22 = load ptr, ptr @l_Std_Time_ZonedDateTime_millisecond___closed__1, align 8, !tbaa !4
  store ptr %22, ptr %7, align 8, !tbaa !4
  %23 = load ptr, ptr %6, align 8, !tbaa !4
  %24 = load ptr, ptr %7, align 8, !tbaa !4
  %25 = call ptr @lean_int_ediv(ptr noundef %23, ptr noundef %24)
  store ptr %25, ptr %8, align 8, !tbaa !4
  %26 = load ptr, ptr %6, align 8, !tbaa !4
  call void @lean_dec(ptr noundef %26)
  %27 = load ptr, ptr %8, align 8, !tbaa !4
  call void @llvm.lifetime.end.p0(i64 8, ptr %8) #7
  call void @llvm.lifetime.end.p0(i64 8, ptr %7) #7
  call void @llvm.lifetime.end.p0(i64 8, ptr %6) #7
  call void @llvm.lifetime.end.p0(i64 8, ptr %5) #7
  call void @llvm.lifetime.end.p0(i64 8, ptr %4) #7
  call void @llvm.lifetime.end.p0(i64 8, ptr %3) #7
  ret ptr %27
}