; Function Attrs: nounwind uwtable
define ptr @l_Std_Time_ZonedDateTime_millisecond(ptr noundef readonly captures(none) %0) local_unnamed_addr #1 {
  %2 = getelementptr inbounds nuw i8, ptr %0, i64 8
  %3 = load ptr, ptr %2, align 8, !tbaa !4
  %4 = getelementptr inbounds nuw i8, ptr %3, i64 8
  %5 = load atomic ptr, ptr %4 seq_cst, align 8, !tbaa !15
  %.not.i.i = icmp eq ptr %5, null
  br i1 %.not.i.i, label %6, label %lean_thunk_get.exit.i

6:                                                ; preds = %1
  %7 = tail call ptr @lean_thunk_get_core(ptr noundef nonnull %3) #7
  br label %lean_thunk_get.exit.i

lean_thunk_get.exit.i:                            ; preds = %6, %1
  %.0.i.i = phi ptr [ %7, %6 ], [ %5, %1 ]
  %8 = ptrtoint ptr %.0.i.i to i64
  %9 = and i64 %8, 1
  %.not.i19 = icmp eq i64 %9, 0
  br i1 %.not.i19, label %10, label %lean_thunk_get_own.exit

10:                                               ; preds = %lean_thunk_get.exit.i
  %.val.i.i = load i32, ptr %.0.i.i, align 4, !tbaa !8
  %11 = icmp sgt i32 %.val.i.i, 0
  br i1 %11, label %12, label %14, !prof !11

12:                                               ; preds = %10
  %13 = add nuw i32 %.val.i.i, 1
  store i32 %13, ptr %.0.i.i, align 4, !tbaa !8
  br label %lean_thunk_get_own.exit

14:                                               ; preds = %10
  %.not.i3.i = icmp eq i32 %.val.i.i, 0
  br i1 %.not.i3.i, label %lean_thunk_get_own.exit, label %15

15:                                               ; preds = %14
  tail call void @lean_inc_ref_cold(ptr noundef nonnull %.0.i.i) #7
  br label %lean_thunk_get_own.exit

lean_thunk_get_own.exit:                          ; preds = %lean_thunk_get.exit.i, %12, %14, %15
  %16 = getelementptr inbounds nuw i8, ptr %.0.i.i, i64 16
  %17 = load ptr, ptr %16, align 8, !tbaa !4
  %18 = ptrtoint ptr %17 to i64
  %19 = and i64 %18, 1
  %.not = icmp eq i64 %19, 0
  br i1 %.not, label %20, label %lean_inc.exit14

20:                                               ; preds = %lean_thunk_get_own.exit
  %.val.i = load i32, ptr %17, align 4, !tbaa !8
  %21 = icmp sgt i32 %.val.i, 0
  br i1 %21, label %22, label %24, !prof !11

22:                                               ; preds = %20
  %23 = add nuw i32 %.val.i, 1
  store i32 %23, ptr %17, align 4, !tbaa !8
  br label %lean_inc.exit14

24:                                               ; preds = %20
  %.not.i20 = icmp eq i32 %.val.i, 0
  br i1 %.not.i20, label %lean_inc.exit14, label %25

25:                                               ; preds = %24
  tail call void @lean_inc_ref_cold(ptr noundef nonnull %17) #7
  br label %lean_inc.exit14

lean_inc.exit14:                                  ; preds = %25, %24, %22, %lean_thunk_get_own.exit
  br i1 %.not.i19, label %26, label %lean_dec.exit13

26:                                               ; preds = %lean_inc.exit14
  %27 = load i32, ptr %.0.i.i, align 4, !tbaa !8
  %28 = icmp sgt i32 %27, 1
  br i1 %28, label %29, label %31, !prof !11

29:                                               ; preds = %26
  %30 = add nsw i32 %27, -1
  store i32 %30, ptr %.0.i.i, align 4, !tbaa !8
  br label %lean_dec.exit13

31:                                               ; preds = %26
  %.not.i = icmp eq i32 %27, 0
  br i1 %.not.i, label %lean_dec.exit13, label %32

32:                                               ; preds = %31
  tail call void @lean_dec_ref_cold(ptr noundef nonnull %.0.i.i) #7
  br label %lean_dec.exit13

lean_dec.exit13:                                  ; preds = %32, %31, %29, %lean_inc.exit14
  %33 = getelementptr inbounds nuw i8, ptr %17, i64 32
  %34 = load ptr, ptr %33, align 8, !tbaa !4
  %35 = ptrtoint ptr %34 to i64
  %36 = and i64 %35, 1
  %.not29 = icmp eq i64 %36, 0
  br i1 %.not29, label %37, label %lean_inc.exit

37:                                               ; preds = %lean_dec.exit13
  %.val.i21 = load i32, ptr %34, align 4, !tbaa !8
  %38 = icmp sgt i32 %.val.i21, 0
  br i1 %38, label %39, label %41, !prof !11

39:                                               ; preds = %37
  %40 = add nuw i32 %.val.i21, 1
  store i32 %40, ptr %34, align 4, !tbaa !8
  br label %lean_inc.exit

41:                                               ; preds = %37
  %.not.i22 = icmp eq i32 %.val.i21, 0
  br i1 %.not.i22, label %lean_inc.exit, label %42

42:                                               ; preds = %41
  tail call void @lean_inc_ref_cold(ptr noundef nonnull %34) #7
  br label %lean_inc.exit

lean_inc.exit:                                    ; preds = %42, %41, %39, %lean_dec.exit13
  br i1 %.not, label %43, label %lean_dec.exit12

43:                                               ; preds = %lean_inc.exit
  %44 = load i32, ptr %17, align 4, !tbaa !8
  %45 = icmp sgt i32 %44, 1
  br i1 %45, label %46, label %48, !prof !11

46:                                               ; preds = %43
  %47 = add nsw i32 %44, -1
  store i32 %47, ptr %17, align 4, !tbaa !8
  br label %lean_dec.exit12

48:                                               ; preds = %43
  %.not.i15 = icmp eq i32 %44, 0
  br i1 %.not.i15, label %lean_dec.exit12, label %49

49:                                               ; preds = %48
  tail call void @lean_dec_ref_cold(ptr noundef nonnull %17) #7
  br label %lean_dec.exit12

lean_dec.exit12:                                  ; preds = %49, %48, %46, %lean_inc.exit
  %50 = load ptr, ptr @l_Std_Time_ZonedDateTime_millisecond___closed__1, align 8, !tbaa !4
  br i1 %.not29, label %77, label %51, !prof !12

51:                                               ; preds = %lean_dec.exit12
  %52 = ptrtoint ptr %50 to i64
  %53 = and i64 %52, 1
  %.not18.i = icmp eq i64 %53, 0
  br i1 %.not18.i, label %lean_int_ediv.exit.thread27, label %55, !prof !12

lean_int_ediv.exit.thread27:                      ; preds = %51
  %54 = tail call ptr @lean_int_big_ediv(ptr noundef %34, ptr noundef %50) #7
  br label %lean_dec.exit

55:                                               ; preds = %51
  %56 = lshr i64 %52, 1
  %57 = trunc i64 %56 to i32
  %58 = icmp eq i32 %57, 0
  br i1 %58, label %lean_dec.exit, label %59

59:                                               ; preds = %55
  %sext.i = shl i64 %56, 32
  %60 = ashr exact i64 %sext.i, 32
  %61 = shl i64 %35, 31
  %62 = ashr i64 %61, 32
  %63 = sdiv i64 %62, %60
  %64 = srem i64 %62, %60
  %65 = icmp slt i64 %64, 0
  %66 = icmp sgt i32 %57, 0
  %.v.i = select i1 %66, i64 -1, i64 1
  %67 = select i1 %65, i64 %.v.i, i64 0
  %.016.i = add nsw i64 %67, %63
  %68 = add nsw i64 %.016.i, 2147483648
  %69 = icmp ult i64 %68, 4294967296
  br i1 %69, label %70, label %75, !prof !11

70:                                               ; preds = %59
  %71 = shl nsw i64 %.016.i, 1
  %72 = and i64 %71, 8589934590
  %73 = or disjoint i64 %72, 1
  %74 = inttoptr i64 %73 to ptr
  br label %lean_dec.exit

75:                                               ; preds = %59
  %76 = tail call ptr @lean_big_int64_to_int(i64 noundef range(i64 -4611686016279904256, 4611686018427387905) %.016.i) #7
  br label %lean_dec.exit

77:                                               ; preds = %lean_dec.exit12
  %78 = tail call ptr @lean_int_big_ediv(ptr noundef %34, ptr noundef %50) #7
  %79 = load i32, ptr %34, align 4, !tbaa !8
  %80 = icmp sgt i32 %79, 1
  br i1 %80, label %81, label %83, !prof !11

81:                                               ; preds = %77
  %82 = add nsw i32 %79, -1
  store i32 %82, ptr %34, align 4, !tbaa !8
  br label %lean_dec.exit

83:                                               ; preds = %77
  %.not.i17 = icmp eq i32 %79, 0
  br i1 %.not.i17, label %lean_dec.exit, label %84

84:                                               ; preds = %83
  tail call void @lean_dec_ref_cold(ptr noundef nonnull %34) #7
  br label %lean_dec.exit

lean_dec.exit:                                    ; preds = %75, %70, %55, %84, %83, %81, %lean_int_ediv.exit.thread27
  %.1.i26 = phi ptr [ %54, %lean_int_ediv.exit.thread27 ], [ %78, %81 ], [ %78, %83 ], [ %78, %84 ], [ %76, %75 ], [ %74, %70 ], [ inttoptr (i64 1 to ptr), %55 ]
  ret ptr %.1.i26
}